; Function Attrs: mustprogress nounwind uwtable
define void @_ZN5boost6fibers7context6resumeEv(ptr noundef nonnull align 8 dereferenceable(232) %0) local_unnamed_addr #3 align 2 personality ptr @__gxx_personality_v0 {
  %2 = alloca %class.anon, align 8
  %3 = tail call align 8 ptr @llvm.threadlocal.address.p0(ptr align 8 @_ZN5boost6fibers19context_initializer7active_E)
  %4 = load ptr, ptr %3, align 8, !tbaa !13
  store ptr %0, ptr %3, align 8, !tbaa !13
  %5 = getelementptr inbounds nuw i8, ptr %0, i64 208
  %6 = ptrtoint ptr %4 to i64
  call void @llvm.lifetime.start.p0(i64 8, ptr nonnull %2) #8, !noalias !56
  store i64 %6, ptr %2, align 8, !tbaa !13, !noalias !56
  %7 = load ptr, ptr %5, align 8, !tbaa !13, !noalias !56
  store ptr null, ptr %5, align 8, !tbaa !13, !noalias !56
  %8 = invoke { ptr, ptr } @ontop_fcontext(ptr noundef %7, ptr noundef nonnull %2, ptr noundef nonnull @"_ZN5boost7context6detail11fiber_ontopINS0_5fiberEZNS_6fibers7context6resumeEvE3$_0EENS1_10transfer_tES7_")
          to label %9 unwind label %16

9:                                                ; preds = %1
  %10 = extractvalue { ptr, ptr } %8, 0
  call void @llvm.lifetime.end.p0(i64 8, ptr nonnull %2) #8, !noalias !56
  %.not.i = icmp eq ptr %10, null
  br i1 %.not.i, label %_ZN5boost7context5fiberD2Ev.exit, label %11, !prof !55

11:                                               ; preds = %9
  %12 = invoke { ptr, ptr } @ontop_fcontext(ptr noundef nonnull %10, ptr noundef null, ptr noundef nonnull @_ZN5boost7context6detail12fiber_unwindENS1_10transfer_tE)
          to label %_ZN5boost7context5fiberD2Ev.exit unwind label %13

13:                                               ; preds = %11
  %14 = landingpad { ptr, i32 }
          catch ptr null
  %15 = extractvalue { ptr, i32 } %14, 0
  call void @__clang_call_terminate(ptr %15) #32
  unreachable

_ZN5boost7context5fiberD2Ev.exit:                 ; preds = %9, %11
  ret void

16:                                               ; preds = %1
  %17 = landingpad { ptr, i32 }
          catch ptr null
  %18 = extractvalue { ptr, i32 } %17, 0
  call void @__clang_call_terminate(ptr %18) #32
  unreachable
}